target datalayout = "e-m:e-p270:32:32-p271:32:32-p272:64:64-i64:64-i128:128-f80:128-n8:16:32:64-S128"
target triple = "x86_64-pc-linux-gnu"

%struct._zval_struct = type { %union._zend_value, %union.anon.9, %union.anon.12 }
%union._zend_value = type { i64 }
%union.anon.9 = type { i32 }
%union.anon.12 = type { i32 }
%struct._zend_op_array = type { i8, [3 x i8], i32, ptr, ptr, ptr, i32, i32, ptr, ptr, ptr, ptr, i32, i32, i32, i32, ptr, ptr, ptr, ptr, ptr, i32, i32, ptr, ptr, ptr, i32, i32, i32, i32, ptr, ptr, [6 x ptr] }
%struct._zend_refcounted_h = type { i32, %union.anon.0 }
%union.anon.0 = type { i32 }
%struct._zend_fcall_info_cache = type { ptr, ptr, ptr, ptr, ptr }
%struct.xml_parser = type { ptr, ptr, %struct._zval_struct, ptr, %struct._zend_fcall_info_cache, %struct._zend_fcall_info_cache, %struct._zend_fcall_info_cache, %struct._zend_fcall_info_cache, %struct._zend_fcall_info_cache, %struct._zend_fcall_info_cache, %struct._zend_fcall_info_cache, %struct._zend_fcall_info_cache, %struct._zend_fcall_info_cache, %struct._zend_fcall_info_cache, %struct._zval_struct, %struct._zval_struct, i32, i32, i32, ptr, ptr, i8, i8, i8, i8, i8, ptr, %struct._zend_object }
%struct._zend_object = type { %struct._zend_refcounted_h, i32, ptr, ptr, ptr, [1 x %struct._zval_struct] }
%struct._zend_refcounted = type { %struct._zend_refcounted_h }
%struct._zend_string = type { %struct._zend_refcounted_h, i64, i64, [1 x i8] }
%struct.anon.13 = type { i8, [3 x i8], i32, ptr, ptr, ptr, i32, i32, ptr, ptr, ptr, ptr, i32 }

; Function Attrs: nounwind uwtable
define internal i32 @_xml_xmlcharlen(ptr noundef %0) #0 {
  %2 = alloca ptr, align 8
  %3 = alloca i32, align 4
  store ptr %0, ptr %2, align 8
  store i32 0, ptr %3, align 4
  br label %4

4:                                                ; preds = %8, %1
  %5 = load ptr, ptr %2, align 8
  %6 = load i8, ptr %5, align 1
  %7 = icmp ne i8 %6, 0
  br i1 %7, label %8, label %13

8:                                                ; preds = %4
  %9 = load i32, ptr %3, align 4
  %10 = add nsw i32 %9, 1
  store i32 %10, ptr %3, align 4
  %11 = load ptr, ptr %2, align 8
  %12 = getelementptr inbounds i8, ptr %11, i32 1
  store ptr %12, ptr %2, align 8
  br label %4

13:                                               ; preds = %4
  %14 = load i32, ptr %3, align 4
  ret i32 %14
}

; Function Attrs: nounwind uwtable
define internal void @_xml_xmlchar_zval(ptr noundef %0, i32 noundef %1, ptr noundef %2, ptr noundef %3) #0 {
  %5 = alloca i32, align 4
  %6 = alloca ptr, align 8
  %7 = alloca i32, align 4
  %8 = alloca ptr, align 8
  %9 = alloca ptr, align 8
  %10 = alloca ptr, align 8
  %11 = alloca ptr, align 8
  store ptr %0, ptr %6, align 8
  store i32 %1, ptr %7, align 4
  store ptr %2, ptr %8, align 8
  store ptr %3, ptr %9, align 8
  %12 = load ptr, ptr %6, align 8
  %13 = icmp eq ptr %12, null
  br i1 %13, label %14, label %19

14:                                               ; preds = %4
  br label %15

15:                                               ; preds = %14
  %16 = load ptr, ptr %9, align 8
  %17 = getelementptr inbounds %struct._zval_struct, ptr %16, i32 0, i32 1
  store i32 2, ptr %17, align 8
  br label %18

18:                                               ; preds = %15
  br label %47

19:                                               ; preds = %4
  %20 = load i32, ptr %7, align 4
  %21 = icmp eq i32 %20, 0
  br i1 %21, label %22, label %25

22:                                               ; preds = %19
  %23 = load ptr, ptr %6, align 8
  %24 = call i32 @_xml_xmlcharlen(ptr noundef %23)
  store i32 %24, ptr %7, align 4
  br label %25

25:                                               ; preds = %22, %19
  br label %26

26:                                               ; preds = %25
  %27 = load ptr, ptr %9, align 8
  store ptr %27, ptr %10, align 8
  %28 = load ptr, ptr %6, align 8
  %29 = load i32, ptr %7, align 4
  %30 = sext i32 %29 to i64
  %31 = load ptr, ptr %8, align 8
  %32 = call ptr @xml_utf8_decode(ptr noundef %28, i64 noundef %30, ptr noundef %31)
  store ptr %32, ptr %11, align 8
  %33 = load ptr, ptr %11, align 8
  %34 = load ptr, ptr %10, align 8
  %35 = getelementptr inbounds %struct._zval_struct, ptr %34, i32 0, i32 0
  store ptr %33, ptr %35, align 8
  %36 = load ptr, ptr %11, align 8
  %37 = getelementptr inbounds %struct._zend_string, ptr %36, i32 0, i32 0
  %38 = getelementptr inbounds %struct._zend_refcounted_h, ptr %37, i32 0, i32 1
  %39 = load i32, ptr %38, align 4
  store i32 %39, ptr %5, align 4
  %40 = load i32, ptr %5, align 4
  %41 = and i32 %40, 1008
  %42 = and i32 %41, 64
  %43 = icmp ne i32 %42, 0
  %44 = select i1 %43, i32 6, i32 262
  %45 = load ptr, ptr %10, align 8
  %46 = getelementptr inbounds %struct._zval_struct, ptr %45, i32 0, i32 1
  store i32 %44, ptr %46, align 8
  br label %47

47:                                               ; preds = %26, %18
  ret void
}

; Function Attrs: nounwind uwtable
define hidden void @_xml_notationDeclHandler(ptr noundef %0, ptr noundef %1, ptr noundef %2, ptr noundef %3, ptr noundef %4) #0 {
  %6 = alloca i32, align 4
  %7 = alloca ptr, align 8
  %8 = alloca i32, align 4
  %9 = alloca ptr, align 8
  %10 = alloca ptr, align 8
  %11 = alloca ptr, align 8
  %12 = alloca i32, align 4
  %13 = alloca ptr, align 8
  %14 = alloca ptr, align 8
  %15 = alloca ptr, align 8
  %16 = alloca ptr, align 8
  %17 = alloca ptr, align 8
  %18 = alloca ptr, align 8
  %19 = alloca ptr, align 8
  %20 = alloca ptr, align 8
  %21 = alloca ptr, align 8
  %22 = alloca ptr, align 8
  %23 = alloca [5 x %struct._zval_struct], align 16
  %24 = alloca ptr, align 8
  %25 = alloca ptr, align 8
  %26 = alloca ptr, align 8
  %27 = alloca i32, align 4
  store ptr %0, ptr %17, align 8
  store ptr %1, ptr %18, align 8
  store ptr %2, ptr %19, align 8
  store ptr %3, ptr %20, align 8
  store ptr %4, ptr %21, align 8
  %28 = load ptr, ptr %17, align 8
  store ptr %28, ptr %22, align 8
  %29 = load ptr, ptr %22, align 8
  %30 = icmp ne ptr %29, null
  br i1 %30, label %31, label %37

31:                                               ; preds = %5
  %32 = load ptr, ptr %22, align 8
  %33 = getelementptr inbounds %struct.xml_parser, ptr %32, i32 0, i32 10
  %34 = getelementptr inbounds %struct._zend_fcall_info_cache, ptr %33, i32 0, i32 0
  %35 = load ptr, ptr %34, align 8
  %36 = icmp ne ptr %35, null
  br i1 %36, label %38, label %37

37:                                               ; preds = %31, %5
  br label %137

38:                                               ; preds = %31
  br label %39

39:                                               ; preds = %38
  %40 = getelementptr inbounds [5 x %struct._zval_struct], ptr %23, i64 0, i64 0
  store ptr %40, ptr %24, align 8
  %41 = load ptr, ptr %22, align 8
  %42 = getelementptr inbounds %struct.xml_parser, ptr %41, i32 0, i32 2
  store ptr %42, ptr %25, align 8
  %43 = load ptr, ptr %25, align 8
  %44 = getelementptr inbounds %struct._zval_struct, ptr %43, i32 0, i32 0
  %45 = load ptr, ptr %44, align 8
  store ptr %45, ptr %26, align 8
  %46 = load ptr, ptr %25, align 8
  %47 = getelementptr inbounds %struct._zval_struct, ptr %46, i32 0, i32 1
  %48 = load i32, ptr %47, align 8
  store i32 %48, ptr %27, align 4
  br label %49

49:                                               ; preds = %39
  %50 = load ptr, ptr %26, align 8
  %51 = load ptr, ptr %24, align 8
  %52 = getelementptr inbounds %struct._zval_struct, ptr %51, i32 0, i32 0
  store ptr %50, ptr %52, align 8
  %53 = load i32, ptr %27, align 4
  %54 = load ptr, ptr %24, align 8
  %55 = getelementptr inbounds %struct._zval_struct, ptr %54, i32 0, i32 1
  store i32 %53, ptr %55, align 8
  br label %56

56:                                               ; preds = %49
  %57 = load i32, ptr %27, align 4
  %58 = and i32 %57, 65280
  %59 = icmp ne i32 %58, 0
  br i1 %59, label %60, label %66

60:                                               ; preds = %56
  %61 = load ptr, ptr %26, align 8
  %62 = getelementptr inbounds %struct._zend_refcounted, ptr %61, i32 0, i32 0
  store ptr %62, ptr %16, align 8
  %63 = load ptr, ptr %16, align 8
  %64 = load i32, ptr %63, align 4
  %65 = add i32 %64, 1
  store i32 %65, ptr %63, align 4
  br label %66

66:                                               ; preds = %60, %56
  br label %67

67:                                               ; preds = %66
  %68 = load ptr, ptr %18, align 8
  %69 = load ptr, ptr %22, align 8
  %70 = getelementptr inbounds %struct.xml_parser, ptr %69, i32 0, i32 1
  %71 = load ptr, ptr %70, align 8
  %72 = getelementptr inbounds [5 x %struct._zval_struct], ptr %23, i64 0, i64 1
  call void @_xml_xmlchar_zval(ptr noundef %68, i32 noundef 0, ptr noundef %71, ptr noundef %72)
  %73 = load ptr, ptr %19, align 8
  %74 = load ptr, ptr %22, align 8
  %75 = getelementptr inbounds %struct.xml_parser, ptr %74, i32 0, i32 1
  %76 = load ptr, ptr %75, align 8
  %77 = getelementptr inbounds [5 x %struct._zval_struct], ptr %23, i64 0, i64 2
  call void @_xml_xmlchar_zval(ptr noundef %73, i32 noundef 0, ptr noundef %76, ptr noundef %77)
  %78 = load ptr, ptr %20, align 8
  %79 = load ptr, ptr %22, align 8
  %80 = getelementptr inbounds %struct.xml_parser, ptr %79, i32 0, i32 1
  %81 = load ptr, ptr %80, align 8
  %82 = getelementptr inbounds [5 x %struct._zval_struct], ptr %23, i64 0, i64 3
  call void @_xml_xmlchar_zval(ptr noundef %78, i32 noundef 0, ptr noundef %81, ptr noundef %82)
  %83 = load ptr, ptr %21, align 8
  %84 = load ptr, ptr %22, align 8
  %85 = getelementptr inbounds %struct.xml_parser, ptr %84, i32 0, i32 1
  %86 = load ptr, ptr %85, align 8
  %87 = getelementptr inbounds [5 x %struct._zval_struct], ptr %23, i64 0, i64 4
  call void @_xml_xmlchar_zval(ptr noundef %83, i32 noundef 0, ptr noundef %86, ptr noundef %87)
  %88 = load ptr, ptr %22, align 8
  %89 = getelementptr inbounds %struct.xml_parser, ptr %88, i32 0, i32 10
  %90 = getelementptr inbounds [5 x %struct._zval_struct], ptr %23, i64 0, i64 0
  store ptr %89, ptr %10, align 8
  store ptr null, ptr %11, align 8
  store i32 5, ptr %12, align 4
  store ptr %90, ptr %13, align 8
  store ptr null, ptr %14, align 8
  %91 = load ptr, ptr %10, align 8
  %92 = load ptr, ptr %91, align 8
  store ptr %92, ptr %15, align 8
  %93 = load ptr, ptr %15, align 8
  %94 = getelementptr inbounds %struct.anon.13, ptr %93, i32 0, i32 2
  %95 = load i32, ptr %94, align 4
  %96 = and i32 %95, 262144
  %97 = icmp ne i32 %96, 0
  br i1 %97, label %98, label %120

98:                                               ; preds = %67
  %99 = call noalias ptr @_emalloc_256() #11
  store ptr %99, ptr %15, align 8
  %100 = load ptr, ptr %15, align 8
  %101 = load ptr, ptr %10, align 8
  %102 = load ptr, ptr %101, align 8
  call void @llvm.memcpy.p0.p0.i64(ptr align 8 %100, ptr align 8 %102, i64 240, i1 false)
  %103 = load ptr, ptr %15, align 8
  %104 = getelementptr inbounds %struct._zend_op_array, ptr %103, i32 0, i32 3
  %105 = load ptr, ptr %104, align 8
  store ptr %105, ptr %9, align 8
  %106 = load ptr, ptr %9, align 8
  %107 = getelementptr inbounds %struct._zend_refcounted_h, ptr %106, i32 0, i32 1
  %108 = load i32, ptr %107, align 4
  store i32 %108, ptr %6, align 4
  %109 = load i32, ptr %6, align 4
  %110 = and i32 %109, 1008
  %111 = and i32 %110, 64
  %112 = icmp ne i32 %111, 0
  br i1 %112, label %118, label %113

113:                                              ; preds = %98
  %114 = load ptr, ptr %9, align 8
  store ptr %114, ptr %7, align 8
  %115 = load ptr, ptr %7, align 8
  %116 = load i32, ptr %115, align 4
  %117 = add i32 %116, 1
  store i32 %117, ptr %115, align 4
  store i32 %117, ptr %8, align 4
  br label %119

118:                                              ; preds = %98
  store i32 1, ptr %8, align 4
  br label %119

119:                                              ; preds = %118, %113
  br label %120

120:                                              ; preds = %119, %67
  %121 = load ptr, ptr %15, align 8
  %122 = load ptr, ptr %10, align 8
  %123 = getelementptr inbounds %struct._zend_fcall_info_cache, ptr %122, i32 0, i32 3
  %124 = load ptr, ptr %123, align 8
  %125 = load ptr, ptr %10, align 8
  %126 = getelementptr inbounds %struct._zend_fcall_info_cache, ptr %125, i32 0, i32 2
  %127 = load ptr, ptr %126, align 8
  %128 = load ptr, ptr %11, align 8
  %129 = load i32, ptr %12, align 4
  %130 = load ptr, ptr %13, align 8
  %131 = load ptr, ptr %14, align 8
  call void @zend_call_known_function(ptr noundef %121, ptr noundef %124, ptr noundef %127, ptr noundef %128, i32 noundef %129, ptr noundef %130, ptr noundef %131) #11
  %132 = getelementptr inbounds [5 x %struct._zval_struct], ptr %23, i64 0, i64 0
  call void @zval_ptr_dtor(ptr noundef %132)
  %133 = getelementptr inbounds [5 x %struct._zval_struct], ptr %23, i64 0, i64 1
  call void @zval_ptr_dtor(ptr noundef %133)
  %134 = getelementptr inbounds [5 x %struct._zval_struct], ptr %23, i64 0, i64 2
  call void @zval_ptr_dtor(ptr noundef %134)
  %135 = getelementptr inbounds [5 x %struct._zval_struct], ptr %23, i64 0, i64 3
  call void @zval_ptr_dtor(ptr noundef %135)
  %136 = getelementptr inbounds [5 x %struct._zval_struct], ptr %23, i64 0, i64 4
  call void @zval_ptr_dtor(ptr noundef %136)
  br label %137

137:                                              ; preds = %120, %37
  ret void
}