; Function Attrs: nounwind uwtable
define hidden void @_xml_notationDeclHandler(ptr noundef readonly %0, ptr noundef %1, ptr noundef %2, ptr noundef %3, ptr noundef %4) #0 {
  %6 = alloca [5 x %struct._zval_struct], align 16
  %.not = icmp eq ptr %0, null
  br i1 %.not, label %102, label %7

7:                                                ; preds = %5
  %8 = getelementptr inbounds i8, ptr %0, i64 280
  %9 = load ptr, ptr %8, align 8
  %.not38 = icmp eq ptr %9, null
  br i1 %.not38, label %102, label %10

10:                                               ; preds = %7
  %11 = getelementptr inbounds i8, ptr %0, i64 16
  %12 = load ptr, ptr %11, align 8
  %13 = getelementptr inbounds i8, ptr %0, i64 24
  %14 = load i32, ptr %13, align 8
  store ptr %12, ptr %6, align 16
  %15 = getelementptr inbounds i8, ptr %6, i64 8
  store i32 %14, ptr %15, align 8
  %16 = and i32 %14, 65280
  %.not39 = icmp eq i32 %16, 0
  br i1 %.not39, label %20, label %17

17:                                               ; preds = %10
  %18 = load i32, ptr %12, align 4
  %19 = add i32 %18, 1
  store i32 %19, ptr %12, align 4
  br label %20

20:                                               ; preds = %10, %17
  %21 = getelementptr inbounds i8, ptr %0, i64 8
  %22 = load ptr, ptr %21, align 8
  %23 = getelementptr inbounds i8, ptr %6, i64 16
  %24 = icmp eq ptr %1, null
  br i1 %24, label %_xml_xmlchar_zval.exit, label %25

25:                                               ; preds = %20
  %26 = load i8, ptr %1, align 1
  %.not4.i.i = icmp eq i8 %26, 0
  br i1 %.not4.i.i, label %_xml_xmlcharlen.exit.i, label %.lr.ph.i.i

.lr.ph.i.i:                                       ; preds = %25, %.lr.ph.i.i
  %.06.i.i = phi i32 [ %27, %.lr.ph.i.i ], [ 0, %25 ]
  %.035.i.i = phi ptr [ %28, %.lr.ph.i.i ], [ %1, %25 ]
  %27 = add nuw nsw i32 %.06.i.i, 1
  %28 = getelementptr inbounds i8, ptr %.035.i.i, i64 1
  %29 = load i8, ptr %28, align 1
  %.not.i.i = icmp eq i8 %29, 0
  br i1 %.not.i.i, label %_xml_xmlcharlen.exit.i.loopexit, label %.lr.ph.i.i

_xml_xmlcharlen.exit.i.loopexit:                  ; preds = %.lr.ph.i.i
  %30 = zext nneg i32 %27 to i64
  br label %_xml_xmlcharlen.exit.i

_xml_xmlcharlen.exit.i:                           ; preds = %_xml_xmlcharlen.exit.i.loopexit, %25
  %.0.i = phi i64 [ 0, %25 ], [ %30, %_xml_xmlcharlen.exit.i.loopexit ]
  %31 = tail call fastcc ptr @xml_utf8_decode(ptr noundef nonnull %1, i64 noundef %.0.i, ptr noundef %22)
  store ptr %31, ptr %23, align 16
  %32 = getelementptr inbounds i8, ptr %31, i64 4
  %33 = load i32, ptr %32, align 4
  %34 = and i32 %33, 64
  %.not.i = icmp eq i32 %34, 0
  %35 = select i1 %.not.i, i32 262, i32 6
  %.pre = load ptr, ptr %21, align 8
  br label %_xml_xmlchar_zval.exit

_xml_xmlchar_zval.exit:                           ; preds = %20, %_xml_xmlcharlen.exit.i
  %36 = phi ptr [ %.pre, %_xml_xmlcharlen.exit.i ], [ %22, %20 ]
  %.sink.i = phi i32 [ %35, %_xml_xmlcharlen.exit.i ], [ 2, %20 ]
  %37 = getelementptr inbounds i8, ptr %6, i64 24
  store i32 %.sink.i, ptr %37, align 8
  %38 = getelementptr inbounds i8, ptr %6, i64 32
  %39 = icmp eq ptr %2, null
  br i1 %39, label %_xml_xmlchar_zval.exit51, label %40

40:                                               ; preds = %_xml_xmlchar_zval.exit
  %41 = load i8, ptr %2, align 1
  %.not4.i.i42 = icmp eq i8 %41, 0
  br i1 %.not4.i.i42, label %_xml_xmlcharlen.exit.i47, label %.lr.ph.i.i43

.lr.ph.i.i43:                                     ; preds = %40, %.lr.ph.i.i43
  %.06.i.i44 = phi i32 [ %42, %.lr.ph.i.i43 ], [ 0, %40 ]
  %.035.i.i45 = phi ptr [ %43, %.lr.ph.i.i43 ], [ %2, %40 ]
  %42 = add nuw nsw i32 %.06.i.i44, 1
  %43 = getelementptr inbounds i8, ptr %.035.i.i45, i64 1
  %44 = load i8, ptr %43, align 1
  %.not.i.i46 = icmp eq i8 %44, 0
  br i1 %.not.i.i46, label %_xml_xmlcharlen.exit.i47.loopexit, label %.lr.ph.i.i43

_xml_xmlcharlen.exit.i47.loopexit:                ; preds = %.lr.ph.i.i43
  %45 = zext nneg i32 %42 to i64
  br label %_xml_xmlcharlen.exit.i47

_xml_xmlcharlen.exit.i47:                         ; preds = %_xml_xmlcharlen.exit.i47.loopexit, %40
  %.0.i48 = phi i64 [ 0, %40 ], [ %45, %_xml_xmlcharlen.exit.i47.loopexit ]
  %46 = tail call fastcc ptr @xml_utf8_decode(ptr noundef nonnull %2, i64 noundef %.0.i48, ptr noundef %36)
  store ptr %46, ptr %38, align 16
  %47 = getelementptr inbounds i8, ptr %46, i64 4
  %48 = load i32, ptr %47, align 4
  %49 = and i32 %48, 64
  %.not.i49 = icmp eq i32 %49, 0
  %50 = select i1 %.not.i49, i32 262, i32 6
  %.pre78 = load ptr, ptr %21, align 8
  br label %_xml_xmlchar_zval.exit51

_xml_xmlchar_zval.exit51:                         ; preds = %_xml_xmlchar_zval.exit, %_xml_xmlcharlen.exit.i47
  %51 = phi ptr [ %.pre78, %_xml_xmlcharlen.exit.i47 ], [ %36, %_xml_xmlchar_zval.exit ]
  %.sink.i50 = phi i32 [ %50, %_xml_xmlcharlen.exit.i47 ], [ 2, %_xml_xmlchar_zval.exit ]
  %52 = getelementptr inbounds i8, ptr %6, i64 40
  store i32 %.sink.i50, ptr %52, align 8
  %53 = getelementptr inbounds i8, ptr %6, i64 48
  %54 = icmp eq ptr %3, null
  br i1 %54, label %_xml_xmlchar_zval.exit61, label %55

55:                                               ; preds = %_xml_xmlchar_zval.exit51
  %56 = load i8, ptr %3, align 1
  %.not4.i.i52 = icmp eq i8 %56, 0
  br i1 %.not4.i.i52, label %_xml_xmlcharlen.exit.i57, label %.lr.ph.i.i53

.lr.ph.i.i53:                                     ; preds = %55, %.lr.ph.i.i53
  %.06.i.i54 = phi i32 [ %57, %.lr.ph.i.i53 ], [ 0, %55 ]
  %.035.i.i55 = phi ptr [ %58, %.lr.ph.i.i53 ], [ %3, %55 ]
  %57 = add nuw nsw i32 %.06.i.i54, 1
  %58 = getelementptr inbounds i8, ptr %.035.i.i55, i64 1
  %59 = load i8, ptr %58, align 1
  %.not.i.i56 = icmp eq i8 %59, 0
  br i1 %.not.i.i56, label %_xml_xmlcharlen.exit.i57.loopexit, label %.lr.ph.i.i53

_xml_xmlcharlen.exit.i57.loopexit:                ; preds = %.lr.ph.i.i53
  %60 = zext nneg i32 %57 to i64
  br label %_xml_xmlcharlen.exit.i57

_xml_xmlcharlen.exit.i57:                         ; preds = %_xml_xmlcharlen.exit.i57.loopexit, %55
  %.0.i58 = phi i64 [ 0, %55 ], [ %60, %_xml_xmlcharlen.exit.i57.loopexit ]
  %61 = tail call fastcc ptr @xml_utf8_decode(ptr noundef nonnull %3, i64 noundef %.0.i58, ptr noundef %51)
  store ptr %61, ptr %53, align 16
  %62 = getelementptr inbounds i8, ptr %61, i64 4
  %63 = load i32, ptr %62, align 4
  %64 = and i32 %63, 64
  %.not.i59 = icmp eq i32 %64, 0
  %65 = select i1 %.not.i59, i32 262, i32 6
  %.pre79 = load ptr, ptr %21, align 8
  br label %_xml_xmlchar_zval.exit61

_xml_xmlchar_zval.exit61:                         ; preds = %_xml_xmlchar_zval.exit51, %_xml_xmlcharlen.exit.i57
  %66 = phi ptr [ %.pre79, %_xml_xmlcharlen.exit.i57 ], [ %51, %_xml_xmlchar_zval.exit51 ]
  %.sink.i60 = phi i32 [ %65, %_xml_xmlcharlen.exit.i57 ], [ 2, %_xml_xmlchar_zval.exit51 ]
  %67 = getelementptr inbounds i8, ptr %6, i64 56
  store i32 %.sink.i60, ptr %67, align 8
  %68 = getelementptr inbounds i8, ptr %6, i64 64
  %69 = icmp eq ptr %4, null
  br i1 %69, label %_xml_xmlchar_zval.exit71, label %70

70:                                               ; preds = %_xml_xmlchar_zval.exit61
  %71 = load i8, ptr %4, align 1
  %.not4.i.i62 = icmp eq i8 %71, 0
  br i1 %.not4.i.i62, label %_xml_xmlcharlen.exit.i67, label %.lr.ph.i.i63

.lr.ph.i.i63:                                     ; preds = %70, %.lr.ph.i.i63
  %.06.i.i64 = phi i32 [ %72, %.lr.ph.i.i63 ], [ 0, %70 ]
  %.035.i.i65 = phi ptr [ %73, %.lr.ph.i.i63 ], [ %4, %70 ]
  %72 = add nuw nsw i32 %.06.i.i64, 1
  %73 = getelementptr inbounds i8, ptr %.035.i.i65, i64 1
  %74 = load i8, ptr %73, align 1
  %.not.i.i66 = icmp eq i8 %74, 0
  br i1 %.not.i.i66, label %_xml_xmlcharlen.exit.i67.loopexit, label %.lr.ph.i.i63

_xml_xmlcharlen.exit.i67.loopexit:                ; preds = %.lr.ph.i.i63
  %75 = zext nneg i32 %72 to i64
  br label %_xml_xmlcharlen.exit.i67

_xml_xmlcharlen.exit.i67:                         ; preds = %_xml_xmlcharlen.exit.i67.loopexit, %70
  %.0.i68 = phi i64 [ 0, %70 ], [ %75, %_xml_xmlcharlen.exit.i67.loopexit ]
  %76 = tail call fastcc ptr @xml_utf8_decode(ptr noundef nonnull %4, i64 noundef %.0.i68, ptr noundef %66)
  store ptr %76, ptr %68, align 16
  %77 = getelementptr inbounds i8, ptr %76, i64 4
  %78 = load i32, ptr %77, align 4
  %79 = and i32 %78, 64
  %.not.i69 = icmp eq i32 %79, 0
  %80 = select i1 %.not.i69, i32 262, i32 6
  br label %_xml_xmlchar_zval.exit71

_xml_xmlchar_zval.exit71:                         ; preds = %_xml_xmlchar_zval.exit61, %_xml_xmlcharlen.exit.i67
  %.sink.i70 = phi i32 [ %80, %_xml_xmlcharlen.exit.i67 ], [ 2, %_xml_xmlchar_zval.exit61 ]
  %81 = getelementptr inbounds i8, ptr %6, i64 72
  store i32 %.sink.i70, ptr %81, align 8
  %82 = load ptr, ptr %8, align 8
  %83 = getelementptr inbounds i8, ptr %82, i64 4
  %84 = load i32, ptr %83, align 4
  %85 = and i32 %84, 262144
  %.not40 = icmp eq i32 %85, 0
  br i1 %.not40, label %97, label %86

86:                                               ; preds = %_xml_xmlchar_zval.exit71
  %87 = tail call noalias ptr @_emalloc_256() #16
  %88 = load ptr, ptr %8, align 8
  tail call void @llvm.memcpy.p0.p0.i64(ptr noundef nonnull align 8 dereferenceable(240) %87, ptr noundef nonnull align 8 dereferenceable(240) %88, i64 240, i1 false)
  %89 = getelementptr inbounds i8, ptr %87, i64 8
  %90 = load ptr, ptr %89, align 8
  %91 = getelementptr inbounds i8, ptr %90, i64 4
  %92 = load i32, ptr %91, align 4
  %93 = and i32 %92, 64
  %.not41 = icmp eq i32 %93, 0
  br i1 %.not41, label %94, label %97

94:                                               ; preds = %86
  %95 = load i32, ptr %90, align 4
  %96 = add i32 %95, 1
  store i32 %96, ptr %90, align 4
  br label %97

97:                                               ; preds = %86, %94, %_xml_xmlchar_zval.exit71
  %.0 = phi ptr [ %87, %94 ], [ %82, %_xml_xmlchar_zval.exit71 ], [ %87, %86 ]
  %98 = getelementptr inbounds i8, ptr %0, i64 304
  %99 = load ptr, ptr %98, align 8
  %100 = getelementptr inbounds i8, ptr %0, i64 296
  %101 = load ptr, ptr %100, align 8
  call void @zend_call_known_function(ptr noundef nonnull %.0, ptr noundef %99, ptr noundef %101, ptr noundef null, i32 noundef 5, ptr noundef nonnull %6, ptr noundef null) #16
  call void @zval_ptr_dtor(ptr noundef nonnull %6) #16
  call void @zval_ptr_dtor(ptr noundef nonnull %23) #16
  call void @zval_ptr_dtor(ptr noundef nonnull %38) #16
  call void @zval_ptr_dtor(ptr noundef nonnull %53) #16
  call void @zval_ptr_dtor(ptr noundef nonnull %68) #16
  br label %102

102:                                              ; preds = %5, %7, %97
  ret void
}